; ModuleID = '4/1299.c'
source_filename = "4/1299.c"
target datalayout = "e-m:e-p270:32:32-p271:32:32-p272:64:64-i64:64-f80:128-n8:16:32:64-S128"
target triple = "x86_64-pc-linux-gnu"

@.str = private unnamed_addr constant [5 x i8] c"%d%d\00", align 1
@.str.1 = private unnamed_addr constant [3 x i8] c"%d\00", align 1
@.str.2 = private unnamed_addr constant [4 x i8] c"%d\0A\00", align 1

; Function Attrs: noinline nounwind uwtable
define dso_local i32 @main() #0 {
  %1 = alloca i32, align 4
  %2 = alloca i32, align 4
  %3 = alloca i32, align 4
  %4 = alloca i32, align 4
  %5 = alloca [100 x [100 x i32]], align 16
  %6 = alloca i32, align 4
  %7 = alloca i32, align 4
  %8 = alloca i32, align 4
  %9 = alloca i32, align 4
  store i32 0, i32* %1, align 4
  %10 = call i32 (i8*, ...) @__isoc99_scanf(i8* getelementptr inbounds ([5 x i8], [5 x i8]* @.str, i64 0, i64 0), i32* %6, i32* %7)
  store i32 0, i32* %8, align 4
  br label %11

11:                                               ; preds = %32, %0
  %12 = load i32, i32* %8, align 4
  %13 = load i32, i32* %6, align 4
  %14 = icmp slt i32 %12, %13
  br i1 %14, label %15, label %35

15:                                               ; preds = %11
  store i32 0, i32* %9, align 4
  br label %16

16:                                               ; preds = %28, %15
  %17 = load i32, i32* %9, align 4
  %18 = load i32, i32* %7, align 4
  %19 = icmp slt i32 %17, %18
  br i1 %19, label %20, label %31

20:                                               ; preds = %16
  %21 = load i32, i32* %8, align 4
  %22 = sext i32 %21 to i64
  %23 = getelementptr inbounds [100 x [100 x i32]], [100 x [100 x i32]]* %5, i64 0, i64 %22
  %24 = load i32, i32* %9, align 4
  %25 = sext i32 %24 to i64
  %26 = getelementptr inbounds [100 x i32], [100 x i32]* %23, i64 0, i64 %25
  %27 = call i32 (i8*, ...) @__isoc99_scanf(i8* getelementptr inbounds ([3 x i8], [3 x i8]* @.str.1, i64 0, i64 0), i32* %26)
  br label %28

28:                                               ; preds = %20
  %29 = load i32, i32* %9, align 4
  %30 = add nsw i32 %29, 1
  store i32 %30, i32* %9, align 4
  br label %16

31:                                               ; preds = %16
  br label %32

32:                                               ; preds = %31
  %33 = load i32, i32* %8, align 4
  %34 = add nsw i32 %33, 1
  store i32 %34, i32* %8, align 4
  br label %11

35:                                               ; preds = %11
  %36 = load i32, i32* %6, align 4
  %37 = load i32, i32* %7, align 4
  %38 = icmp sge i32 %36, %37
  br i1 %38, label %39, label %118

39:                                               ; preds = %35
  store i32 0, i32* %2, align 4
  br label %40

40:                                               ; preds = %64, %39
  %41 = load i32, i32* %2, align 4
  %42 = load i32, i32* %7, align 4
  %43 = icmp slt i32 %41, %42
  br i1 %43, label %44, label %67

44:                                               ; preds = %40
  store i32 0, i32* %3, align 4
  br label %45

45:                                               ; preds = %60, %44
  %46 = load i32, i32* %3, align 4
  %47 = load i32, i32* %2, align 4
  %48 = icmp sle i32 %46, %47
  br i1 %48, label %49, label %63

49:                                               ; preds = %45
  %50 = load i32, i32* %3, align 4
  %51 = sext i32 %50 to i64
  %52 = getelementptr inbounds [100 x [100 x i32]], [100 x [100 x i32]]* %5, i64 0, i64 %51
  %53 = load i32, i32* %2, align 4
  %54 = load i32, i32* %3, align 4
  %55 = sub nsw i32 %53, %54
  %56 = sext i32 %55 to i64
  %57 = getelementptr inbounds [100 x i32], [100 x i32]* %52, i64 0, i64 %56
  %58 = load i32, i32* %57, align 4
  %59 = call i32 (i8*, ...) @printf(i8* getelementptr inbounds ([4 x i8], [4 x i8]* @.str.2, i64 0, i64 0), i32 %58)
  br label %60

60:                                               ; preds = %49
  %61 = load i32, i32* %3, align 4
  %62 = add nsw i32 %61, 1
  store i32 %62, i32* %3, align 4
  br label %45

63:                                               ; preds = %45
  br label %64

64:                                               ; preds = %63
  %65 = load i32, i32* %2, align 4
  %66 = add nsw i32 %65, 1
  store i32 %66, i32* %2, align 4
  br label %40

67:                                               ; preds = %40
  %68 = load i32, i32* %7, align 4
  store i32 %68, i32* %2, align 4
  br label %69

69:                                               ; preds = %114, %67
  %70 = load i32, i32* %2, align 4
  %71 = load i32, i32* %6, align 4
  %72 = load i32, i32* %7, align 4
  %73 = add nsw i32 %71, %72
  %74 = sub nsw i32 %73, 1
  %75 = icmp slt i32 %70, %74
  br i1 %75, label %76, label %117

76:                                               ; preds = %69
  %77 = load i32, i32* %2, align 4
  %78 = load i32, i32* %7, align 4
  %79 = sub nsw i32 %77, %78
  %80 = add nsw i32 %79, 1
  store i32 %80, i32* %4, align 4
  store i32 0, i32* %3, align 4
  br label %81

81:                                               ; preds = %110, %76
  %82 = load i32, i32* %3, align 4
  %83 = load i32, i32* %6, align 4
  %84 = load i32, i32* %4, align 4
  %85 = sub nsw i32 %83, %84
  %86 = icmp slt i32 %82, %85
  br i1 %86, label %87, label %93

87:                                               ; preds = %81
  %88 = load i32, i32* %3, align 4
  %89 = load i32, i32* %2, align 4
  %90 = load i32, i32* %4, align 4
  %91 = sub nsw i32 %89, %90
  %92 = icmp sle i32 %88, %91
  br label %93

93:                                               ; preds = %87, %81
  %94 = phi i1 [ false, %81 ], [ %92, %87 ]
  br i1 %94, label %95, label %113

95:                                               ; preds = %93
  %96 = load i32, i32* %3, align 4
  %97 = load i32, i32* %4, align 4
  %98 = add nsw i32 %96, %97
  %99 = sext i32 %98 to i64
  %100 = getelementptr inbounds [100 x [100 x i32]], [100 x [100 x i32]]* %5, i64 0, i64 %99
  %101 = load i32, i32* %2, align 4
  %102 = load i32, i32* %3, align 4
  %103 = sub nsw i32 %101, %102
  %104 = load i32, i32* %4, align 4
  %105 = sub nsw i32 %103, %104
  %106 = sext i32 %105 to i64
  %107 = getelementptr inbounds [100 x i32], [100 x i32]* %100, i64 0, i64 %106
  %108 = load i32, i32* %107, align 4
  %109 = call i32 (i8*, ...) @printf(i8* getelementptr inbounds ([4 x i8], [4 x i8]* @.str.2, i64 0, i64 0), i32 %108)
  br label %110

110:                                              ; preds = %95
  %111 = load i32, i32* %3, align 4
  %112 = add nsw i32 %111, 1
  store i32 %112, i32* %3, align 4
  br label %81

113:                                              ; preds = %93
  br label %114

114:                                              ; preds = %113
  %115 = load i32, i32* %2, align 4
  %116 = add nsw i32 %115, 1
  store i32 %116, i32* %2, align 4
  br label %69

117:                                              ; preds = %69
  br label %218

118:                                              ; preds = %35
  store i32 0, i32* %2, align 4
  br label %119

119:                                              ; preds = %143, %118
  %120 = load i32, i32* %2, align 4
  %121 = load i32, i32* %6, align 4
  %122 = icmp slt i32 %120, %121
  br i1 %122, label %123, label %146

123:                                              ; preds = %119
  store i32 0, i32* %3, align 4
  br label %124

124:                                              ; preds = %139, %123
  %125 = load i32, i32* %3, align 4
  %126 = load i32, i32* %2, align 4
  %127 = icmp sle i32 %125, %126
  br i1 %127, label %128, label %142

128:                                              ; preds = %124
  %129 = load i32, i32* %3, align 4
  %130 = sext i32 %129 to i64
  %131 = getelementptr inbounds [100 x [100 x i32]], [100 x [100 x i32]]* %5, i64 0, i64 %130
  %132 = load i32, i32* %2, align 4
  %133 = load i32, i32* %3, align 4
  %134 = sub nsw i32 %132, %133
  %135 = sext i32 %134 to i64
  %136 = getelementptr inbounds [100 x i32], [100 x i32]* %131, i64 0, i64 %135
  %137 = load i32, i32* %136, align 4
  %138 = call i32 (i8*, ...) @printf(i8* getelementptr inbounds ([4 x i8], [4 x i8]* @.str.2, i64 0, i64 0), i32 %137)
  br label %139

139:                                              ; preds = %128
  %140 = load i32, i32* %3, align 4
  %141 = add nsw i32 %140, 1
  store i32 %141, i32* %3, align 4
  br label %124

142:                                              ; preds = %124
  br label %143

143:                                              ; preds = %142
  %144 = load i32, i32* %2, align 4
  %145 = add nsw i32 %144, 1
  store i32 %145, i32* %2, align 4
  br label %119

146:                                              ; preds = %119
  %147 = load i32, i32* %6, align 4
  store i32 %147, i32* %2, align 4
  br label %148

148:                                              ; preds = %172, %146
  %149 = load i32, i32* %2, align 4
  %150 = load i32, i32* %7, align 4
  %151 = icmp slt i32 %149, %150
  br i1 %151, label %152, label %175

152:                                              ; preds = %148
  store i32 0, i32* %3, align 4
  br label %153

153:                                              ; preds = %168, %152
  %154 = load i32, i32* %3, align 4
  %155 = load i32, i32* %6, align 4
  %156 = icmp slt i32 %154, %155
  br i1 %156, label %157, label %171

157:                                              ; preds = %153
  %158 = load i32, i32* %3, align 4
  %159 = sext i32 %158 to i64
  %160 = getelementptr inbounds [100 x [100 x i32]], [100 x [100 x i32]]* %5, i64 0, i64 %159
  %161 = load i32, i32* %2, align 4
  %162 = load i32, i32* %3, align 4
  %163 = sub nsw i32 %161, %162
  %164 = sext i32 %163 to i64
  %165 = getelementptr inbounds [100 x i32], [100 x i32]* %160, i64 0, i64 %164
  %166 = load i32, i32* %165, align 4
  %167 = call i32 (i8*, ...) @printf(i8* getelementptr inbounds ([4 x i8], [4 x i8]* @.str.2, i64 0, i64 0), i32 %166)
  br label %168

168:                                              ; preds = %157
  %169 = load i32, i32* %3, align 4
  %170 = add nsw i32 %169, 1
  store i32 %170, i32* %3, align 4
  br label %153

171:                                              ; preds = %153
  br label %172

172:                                              ; preds = %171
  %173 = load i32, i32* %2, align 4
  %174 = add nsw i32 %173, 1
  store i32 %174, i32* %2, align 4
  br label %148

175:                                              ; preds = %148
  %176 = load i32, i32* %7, align 4
  store i32 %176, i32* %2, align 4
  br label %177

177:                                              ; preds = %214, %175
  %178 = load i32, i32* %2, align 4
  %179 = load i32, i32* %6, align 4
  %180 = load i32, i32* %7, align 4
  %181 = add nsw i32 %179, %180
  %182 = sub nsw i32 %181, 1
  %183 = icmp slt i32 %178, %182
  br i1 %183, label %184, label %217

184:                                              ; preds = %177
  %185 = load i32, i32* %2, align 4
  %186 = load i32, i32* %7, align 4
  %187 = sub nsw i32 %185, %186
  %188 = add nsw i32 %187, 1
  store i32 %188, i32* %4, align 4
  store i32 0, i32* %3, align 4
  br label %189

189:                                              ; preds = %210, %184
  %190 = load i32, i32* %3, align 4
  %191 = load i32, i32* %6, align 4
  %192 = load i32, i32* %4, align 4
  %193 = sub nsw i32 %191, %192
  %194 = icmp slt i32 %190, %193
  br i1 %194, label %195, label %213

195:                                              ; preds = %189
  %196 = load i32, i32* %3, align 4
  %197 = load i32, i32* %4, align 4
  %198 = add nsw i32 %196, %197
  %199 = sext i32 %198 to i64
  %200 = getelementptr inbounds [100 x [100 x i32]], [100 x [100 x i32]]* %5, i64 0, i64 %199
  %201 = load i32, i32* %2, align 4
  %202 = load i32, i32* %3, align 4
  %203 = sub nsw i32 %201, %202
  %204 = load i32, i32* %4, align 4
  %205 = sub nsw i32 %203, %204
  %206 = sext i32 %205 to i64
  %207 = getelementptr inbounds [100 x i32], [100 x i32]* %200, i64 0, i64 %206
  %208 = load i32, i32* %207, align 4
  %209 = call i32 (i8*, ...) @printf(i8* getelementptr inbounds ([4 x i8], [4 x i8]* @.str.2, i64 0, i64 0), i32 %208)
  br label %210

210:                                              ; preds = %195
  %211 = load i32, i32* %3, align 4
  %212 = add nsw i32 %211, 1
  store i32 %212, i32* %3, align 4
  br label %189

213:                                              ; preds = %189
  br label %214

214:                                              ; preds = %213
  %215 = load i32, i32* %2, align 4
  %216 = add nsw i32 %215, 1
  store i32 %216, i32* %2, align 4
  br label %177

217:                                              ; preds = %177
  br label %218

218:                                              ; preds = %217, %117
  ret i32 0
}

declare dso_local i32 @__isoc99_scanf(i8*, ...) #1

declare dso_local i32 @printf(i8*, ...) #1


!llvm.module.flags = !{!0}
!llvm.ident = !{!1}

!0 = !{i32 1, !"wchar_size", i32 4}
!1 = !{!"clang version 10.0.0-4ubuntu1 "}
